ARM GAS  C:\Users\atill\AppData\Local\Temp\ccABANbQ.s 			page 1


   1              		.syntax unified
   2              		.cpu cortex-m3
   3              		.fpu softvfp
   4              		.eabi_attribute 20, 1
   5              		.eabi_attribute 21, 1
   6              		.eabi_attribute 23, 3
   7              		.eabi_attribute 24, 1
   8              		.eabi_attribute 25, 1
   9              		.eabi_attribute 26, 1
  10              		.eabi_attribute 30, 1
  11              		.eabi_attribute 34, 1
  12              		.eabi_attribute 18, 4
  13              		.thumb
  14              		.syntax unified
  15              		.file	"HELFT_B.c"
  16              		.text
  17              	.Ltext0:
  18              		.cfi_sections	.debug_frame
  19              		.section	.text.HELFT_B_Write,"ax",%progbits
  20              		.align	2
  21              		.global	HELFT_B_Write
  22              		.thumb
  23              		.thumb_func
  24              		.type	HELFT_B_Write, %function
  25              	HELFT_B_Write:
  26              	.LFB0:
  27              		.file 1 "Generated_Source\\PSoC5\\HELFT_B.c"
   1:Generated_Source\PSoC5/HELFT_B.c **** /*******************************************************************************
   2:Generated_Source\PSoC5/HELFT_B.c **** * File Name: HELFT_B.c  
   3:Generated_Source\PSoC5/HELFT_B.c **** * Version 2.20
   4:Generated_Source\PSoC5/HELFT_B.c **** *
   5:Generated_Source\PSoC5/HELFT_B.c **** * Description:
   6:Generated_Source\PSoC5/HELFT_B.c **** *  This file contains API to enable firmware control of a Pins component.
   7:Generated_Source\PSoC5/HELFT_B.c **** *
   8:Generated_Source\PSoC5/HELFT_B.c **** * Note:
   9:Generated_Source\PSoC5/HELFT_B.c **** *
  10:Generated_Source\PSoC5/HELFT_B.c **** ********************************************************************************
  11:Generated_Source\PSoC5/HELFT_B.c **** * Copyright 2008-2015, Cypress Semiconductor Corporation.  All rights reserved.
  12:Generated_Source\PSoC5/HELFT_B.c **** * You may use this file only in accordance with the license, terms, conditions, 
  13:Generated_Source\PSoC5/HELFT_B.c **** * disclaimers, and limitations in the end user license agreement accompanying 
  14:Generated_Source\PSoC5/HELFT_B.c **** * the software package with which this file was provided.
  15:Generated_Source\PSoC5/HELFT_B.c **** *******************************************************************************/
  16:Generated_Source\PSoC5/HELFT_B.c **** 
  17:Generated_Source\PSoC5/HELFT_B.c **** #include "cytypes.h"
  18:Generated_Source\PSoC5/HELFT_B.c **** #include "HELFT_B.h"
  19:Generated_Source\PSoC5/HELFT_B.c **** 
  20:Generated_Source\PSoC5/HELFT_B.c **** /* APIs are not generated for P15[7:6] on PSoC 5 */
  21:Generated_Source\PSoC5/HELFT_B.c **** #if !(CY_PSOC5A &&\
  22:Generated_Source\PSoC5/HELFT_B.c **** 	 HELFT_B__PORT == 15 && ((HELFT_B__MASK & 0xC0) != 0))
  23:Generated_Source\PSoC5/HELFT_B.c **** 
  24:Generated_Source\PSoC5/HELFT_B.c **** 
  25:Generated_Source\PSoC5/HELFT_B.c **** /*******************************************************************************
  26:Generated_Source\PSoC5/HELFT_B.c **** * Function Name: HELFT_B_Write
  27:Generated_Source\PSoC5/HELFT_B.c **** ****************************************************************************//**
  28:Generated_Source\PSoC5/HELFT_B.c **** *
  29:Generated_Source\PSoC5/HELFT_B.c **** * \brief Writes the value to the physical port (data output register), masking
  30:Generated_Source\PSoC5/HELFT_B.c **** *  and shifting the bits appropriately. 
ARM GAS  C:\Users\atill\AppData\Local\Temp\ccABANbQ.s 			page 2


  31:Generated_Source\PSoC5/HELFT_B.c **** *
  32:Generated_Source\PSoC5/HELFT_B.c **** * The data output register controls the signal applied to the physical pin in 
  33:Generated_Source\PSoC5/HELFT_B.c **** * conjunction with the drive mode parameter. This function avoids changing 
  34:Generated_Source\PSoC5/HELFT_B.c **** * other bits in the port by using the appropriate method (read-modify-write or
  35:Generated_Source\PSoC5/HELFT_B.c **** * bit banding).
  36:Generated_Source\PSoC5/HELFT_B.c **** *
  37:Generated_Source\PSoC5/HELFT_B.c **** * <b>Note</b> This function should not be used on a hardware digital output pin 
  38:Generated_Source\PSoC5/HELFT_B.c **** * as it is driven by the hardware signal attached to it.
  39:Generated_Source\PSoC5/HELFT_B.c **** *
  40:Generated_Source\PSoC5/HELFT_B.c **** * \param value
  41:Generated_Source\PSoC5/HELFT_B.c **** *  Value to write to the component instance.
  42:Generated_Source\PSoC5/HELFT_B.c **** *
  43:Generated_Source\PSoC5/HELFT_B.c **** * \return 
  44:Generated_Source\PSoC5/HELFT_B.c **** *  None 
  45:Generated_Source\PSoC5/HELFT_B.c **** *
  46:Generated_Source\PSoC5/HELFT_B.c **** * \sideeffect
  47:Generated_Source\PSoC5/HELFT_B.c **** *  If you use read-modify-write operations that are not atomic; the Interrupt 
  48:Generated_Source\PSoC5/HELFT_B.c **** *  Service Routines (ISR) can cause corruption of this function. An ISR that 
  49:Generated_Source\PSoC5/HELFT_B.c **** *  interrupts this function and performs writes to the Pins component data 
  50:Generated_Source\PSoC5/HELFT_B.c **** *  register can cause corrupted port data. To avoid this issue, you should 
  51:Generated_Source\PSoC5/HELFT_B.c **** *  either use the Per-Pin APIs (primary method) or disable interrupts around 
  52:Generated_Source\PSoC5/HELFT_B.c **** *  this function.
  53:Generated_Source\PSoC5/HELFT_B.c **** *
  54:Generated_Source\PSoC5/HELFT_B.c **** * \funcusage
  55:Generated_Source\PSoC5/HELFT_B.c **** *  \snippet HELFT_B_SUT.c usage_HELFT_B_Write
  56:Generated_Source\PSoC5/HELFT_B.c **** *******************************************************************************/
  57:Generated_Source\PSoC5/HELFT_B.c **** void HELFT_B_Write(uint8 value)
  58:Generated_Source\PSoC5/HELFT_B.c **** {
  28              		.loc 1 58 0
  29              		.cfi_startproc
  30              		@ args = 0, pretend = 0, frame = 0
  31              		@ frame_needed = 0, uses_anonymous_args = 0
  32              		@ link register save eliminated.
  33              	.LVL0:
  59:Generated_Source\PSoC5/HELFT_B.c ****     uint8 staticBits = (HELFT_B_DR & (uint8)(~HELFT_B_MASK));
  34              		.loc 1 59 0
  35 0000 044A     		ldr	r2, .L2
  36 0002 1378     		ldrb	r3, [r2]	@ zero_extendqisi2
  37 0004 03F00703 		and	r3, r3, #7
  38              	.LVL1:
  60:Generated_Source\PSoC5/HELFT_B.c ****     HELFT_B_DR = staticBits | ((uint8)(value << HELFT_B_SHIFT) & HELFT_B_MASK);
  39              		.loc 1 60 0
  40 0008 C000     		lsls	r0, r0, #3
  41              	.LVL2:
  42 000a C0B2     		uxtb	r0, r0
  43 000c 1843     		orrs	r0, r0, r3
  44 000e 1070     		strb	r0, [r2]
  45 0010 7047     		bx	lr
  46              	.L3:
  47 0012 00BF     		.align	2
  48              	.L2:
  49 0014 20510040 		.word	1073762592
  50              		.cfi_endproc
  51              	.LFE0:
  52              		.size	HELFT_B_Write, .-HELFT_B_Write
  53              		.section	.text.HELFT_B_SetDriveMode,"ax",%progbits
  54              		.align	2
ARM GAS  C:\Users\atill\AppData\Local\Temp\ccABANbQ.s 			page 3


  55              		.global	HELFT_B_SetDriveMode
  56              		.thumb
  57              		.thumb_func
  58              		.type	HELFT_B_SetDriveMode, %function
  59              	HELFT_B_SetDriveMode:
  60              	.LFB1:
  61:Generated_Source\PSoC5/HELFT_B.c **** }
  62:Generated_Source\PSoC5/HELFT_B.c **** 
  63:Generated_Source\PSoC5/HELFT_B.c **** 
  64:Generated_Source\PSoC5/HELFT_B.c **** /*******************************************************************************
  65:Generated_Source\PSoC5/HELFT_B.c **** * Function Name: HELFT_B_SetDriveMode
  66:Generated_Source\PSoC5/HELFT_B.c **** ****************************************************************************//**
  67:Generated_Source\PSoC5/HELFT_B.c **** *
  68:Generated_Source\PSoC5/HELFT_B.c **** * \brief Sets the drive mode for each of the Pins component's pins.
  69:Generated_Source\PSoC5/HELFT_B.c **** * 
  70:Generated_Source\PSoC5/HELFT_B.c **** * <b>Note</b> This affects all pins in the Pins component instance. Use the
  71:Generated_Source\PSoC5/HELFT_B.c **** * Per-Pin APIs if you wish to control individual pin's drive modes.
  72:Generated_Source\PSoC5/HELFT_B.c **** *
  73:Generated_Source\PSoC5/HELFT_B.c **** * \param mode
  74:Generated_Source\PSoC5/HELFT_B.c **** *  Mode for the selected signals. Valid options are documented in 
  75:Generated_Source\PSoC5/HELFT_B.c **** *  \ref driveMode.
  76:Generated_Source\PSoC5/HELFT_B.c **** *
  77:Generated_Source\PSoC5/HELFT_B.c **** * \return
  78:Generated_Source\PSoC5/HELFT_B.c **** *  None
  79:Generated_Source\PSoC5/HELFT_B.c **** *
  80:Generated_Source\PSoC5/HELFT_B.c **** * \sideeffect
  81:Generated_Source\PSoC5/HELFT_B.c **** *  If you use read-modify-write operations that are not atomic, the ISR can
  82:Generated_Source\PSoC5/HELFT_B.c **** *  cause corruption of this function. An ISR that interrupts this function 
  83:Generated_Source\PSoC5/HELFT_B.c **** *  and performs writes to the Pins component Drive Mode registers can cause 
  84:Generated_Source\PSoC5/HELFT_B.c **** *  corrupted port data. To avoid this issue, you should either use the Per-Pin
  85:Generated_Source\PSoC5/HELFT_B.c **** *  APIs (primary method) or disable interrupts around this function.
  86:Generated_Source\PSoC5/HELFT_B.c **** *
  87:Generated_Source\PSoC5/HELFT_B.c **** * \funcusage
  88:Generated_Source\PSoC5/HELFT_B.c **** *  \snippet HELFT_B_SUT.c usage_HELFT_B_SetDriveMode
  89:Generated_Source\PSoC5/HELFT_B.c **** *******************************************************************************/
  90:Generated_Source\PSoC5/HELFT_B.c **** void HELFT_B_SetDriveMode(uint8 mode)
  91:Generated_Source\PSoC5/HELFT_B.c **** {
  61              		.loc 1 91 0
  62              		.cfi_startproc
  63              		@ args = 0, pretend = 0, frame = 0
  64              		@ frame_needed = 0, uses_anonymous_args = 0
  65              		@ link register save eliminated.
  66              	.LVL3:
  92:Generated_Source\PSoC5/HELFT_B.c **** 	CyPins_SetPinDriveMode(HELFT_B_0, mode);
  67              		.loc 1 92 0
  68 0000 104A     		ldr	r2, .L5
  69 0002 1378     		ldrb	r3, [r2]	@ zero_extendqisi2
  70 0004 00F00E00 		and	r0, r0, #14
  71              	.LVL4:
  72 0008 03F0F103 		and	r3, r3, #241
  73 000c 0343     		orrs	r3, r3, r0
  74 000e 1370     		strb	r3, [r2]
  93:Generated_Source\PSoC5/HELFT_B.c **** 	CyPins_SetPinDriveMode(HELFT_B_1, mode);
  75              		.loc 1 93 0
  76 0010 0132     		adds	r2, r2, #1
  77 0012 1378     		ldrb	r3, [r2]	@ zero_extendqisi2
  78 0014 03F0F103 		and	r3, r3, #241
ARM GAS  C:\Users\atill\AppData\Local\Temp\ccABANbQ.s 			page 4


  79 0018 0343     		orrs	r3, r3, r0
  80 001a 1370     		strb	r3, [r2]
  94:Generated_Source\PSoC5/HELFT_B.c **** 	CyPins_SetPinDriveMode(HELFT_B_2, mode);
  81              		.loc 1 94 0
  82 001c 0132     		adds	r2, r2, #1
  83 001e 1378     		ldrb	r3, [r2]	@ zero_extendqisi2
  84 0020 03F0F103 		and	r3, r3, #241
  85 0024 0343     		orrs	r3, r3, r0
  86 0026 1370     		strb	r3, [r2]
  95:Generated_Source\PSoC5/HELFT_B.c **** 	CyPins_SetPinDriveMode(HELFT_B_3, mode);
  87              		.loc 1 95 0
  88 0028 0132     		adds	r2, r2, #1
  89 002a 1378     		ldrb	r3, [r2]	@ zero_extendqisi2
  90 002c 03F0F103 		and	r3, r3, #241
  91 0030 0343     		orrs	r3, r3, r0
  92 0032 1370     		strb	r3, [r2]
  96:Generated_Source\PSoC5/HELFT_B.c **** 	CyPins_SetPinDriveMode(HELFT_B_4, mode);
  93              		.loc 1 96 0
  94 0034 0132     		adds	r2, r2, #1
  95 0036 1378     		ldrb	r3, [r2]	@ zero_extendqisi2
  96 0038 03F0F103 		and	r3, r3, #241
  97 003c 1843     		orrs	r0, r0, r3
  98 003e 1070     		strb	r0, [r2]
  99 0040 7047     		bx	lr
 100              	.L6:
 101 0042 00BF     		.align	2
 102              	.L5:
 103 0044 13500040 		.word	1073762323
 104              		.cfi_endproc
 105              	.LFE1:
 106              		.size	HELFT_B_SetDriveMode, .-HELFT_B_SetDriveMode
 107              		.section	.text.HELFT_B_Read,"ax",%progbits
 108              		.align	2
 109              		.global	HELFT_B_Read
 110              		.thumb
 111              		.thumb_func
 112              		.type	HELFT_B_Read, %function
 113              	HELFT_B_Read:
 114              	.LFB2:
  97:Generated_Source\PSoC5/HELFT_B.c **** }
  98:Generated_Source\PSoC5/HELFT_B.c **** 
  99:Generated_Source\PSoC5/HELFT_B.c **** 
 100:Generated_Source\PSoC5/HELFT_B.c **** /*******************************************************************************
 101:Generated_Source\PSoC5/HELFT_B.c **** * Function Name: HELFT_B_Read
 102:Generated_Source\PSoC5/HELFT_B.c **** ****************************************************************************//**
 103:Generated_Source\PSoC5/HELFT_B.c **** *
 104:Generated_Source\PSoC5/HELFT_B.c **** * \brief Reads the associated physical port (pin status register) and masks 
 105:Generated_Source\PSoC5/HELFT_B.c **** *  the required bits according to the width and bit position of the component
 106:Generated_Source\PSoC5/HELFT_B.c **** *  instance. 
 107:Generated_Source\PSoC5/HELFT_B.c **** *
 108:Generated_Source\PSoC5/HELFT_B.c **** * The pin's status register returns the current logic level present on the 
 109:Generated_Source\PSoC5/HELFT_B.c **** * physical pin.
 110:Generated_Source\PSoC5/HELFT_B.c **** *
 111:Generated_Source\PSoC5/HELFT_B.c **** * \return 
 112:Generated_Source\PSoC5/HELFT_B.c **** *  The current value for the pins in the component as a right justified number.
 113:Generated_Source\PSoC5/HELFT_B.c **** *
 114:Generated_Source\PSoC5/HELFT_B.c **** * \funcusage
ARM GAS  C:\Users\atill\AppData\Local\Temp\ccABANbQ.s 			page 5


 115:Generated_Source\PSoC5/HELFT_B.c **** *  \snippet HELFT_B_SUT.c usage_HELFT_B_Read  
 116:Generated_Source\PSoC5/HELFT_B.c **** *******************************************************************************/
 117:Generated_Source\PSoC5/HELFT_B.c **** uint8 HELFT_B_Read(void)
 118:Generated_Source\PSoC5/HELFT_B.c **** {
 115              		.loc 1 118 0
 116              		.cfi_startproc
 117              		@ args = 0, pretend = 0, frame = 0
 118              		@ frame_needed = 0, uses_anonymous_args = 0
 119              		@ link register save eliminated.
 119:Generated_Source\PSoC5/HELFT_B.c ****     return (HELFT_B_PS & HELFT_B_MASK) >> HELFT_B_SHIFT;
 120              		.loc 1 119 0
 121 0000 014B     		ldr	r3, .L8
 122 0002 1878     		ldrb	r0, [r3]	@ zero_extendqisi2
 120:Generated_Source\PSoC5/HELFT_B.c **** }
 123              		.loc 1 120 0
 124 0004 C008     		lsrs	r0, r0, #3
 125 0006 7047     		bx	lr
 126              	.L9:
 127              		.align	2
 128              	.L8:
 129 0008 21510040 		.word	1073762593
 130              		.cfi_endproc
 131              	.LFE2:
 132              		.size	HELFT_B_Read, .-HELFT_B_Read
 133              		.section	.text.HELFT_B_ReadDataReg,"ax",%progbits
 134              		.align	2
 135              		.global	HELFT_B_ReadDataReg
 136              		.thumb
 137              		.thumb_func
 138              		.type	HELFT_B_ReadDataReg, %function
 139              	HELFT_B_ReadDataReg:
 140              	.LFB3:
 121:Generated_Source\PSoC5/HELFT_B.c **** 
 122:Generated_Source\PSoC5/HELFT_B.c **** 
 123:Generated_Source\PSoC5/HELFT_B.c **** /*******************************************************************************
 124:Generated_Source\PSoC5/HELFT_B.c **** * Function Name: HELFT_B_ReadDataReg
 125:Generated_Source\PSoC5/HELFT_B.c **** ****************************************************************************//**
 126:Generated_Source\PSoC5/HELFT_B.c **** *
 127:Generated_Source\PSoC5/HELFT_B.c **** * \brief Reads the associated physical port's data output register and masks 
 128:Generated_Source\PSoC5/HELFT_B.c **** *  the correct bits according to the width and bit position of the component 
 129:Generated_Source\PSoC5/HELFT_B.c **** *  instance. 
 130:Generated_Source\PSoC5/HELFT_B.c **** *
 131:Generated_Source\PSoC5/HELFT_B.c **** * The data output register controls the signal applied to the physical pin in 
 132:Generated_Source\PSoC5/HELFT_B.c **** * conjunction with the drive mode parameter. This is not the same as the 
 133:Generated_Source\PSoC5/HELFT_B.c **** * preferred HELFT_B_Read() API because the 
 134:Generated_Source\PSoC5/HELFT_B.c **** * HELFT_B_ReadDataReg() reads the data register instead of the status 
 135:Generated_Source\PSoC5/HELFT_B.c **** * register. For output pins this is a useful function to determine the value 
 136:Generated_Source\PSoC5/HELFT_B.c **** * just written to the pin.
 137:Generated_Source\PSoC5/HELFT_B.c **** *
 138:Generated_Source\PSoC5/HELFT_B.c **** * \return 
 139:Generated_Source\PSoC5/HELFT_B.c **** *  The current value of the data register masked and shifted into a right 
 140:Generated_Source\PSoC5/HELFT_B.c **** *  justified number for the component instance.
 141:Generated_Source\PSoC5/HELFT_B.c **** *
 142:Generated_Source\PSoC5/HELFT_B.c **** * \funcusage
 143:Generated_Source\PSoC5/HELFT_B.c **** *  \snippet HELFT_B_SUT.c usage_HELFT_B_ReadDataReg 
 144:Generated_Source\PSoC5/HELFT_B.c **** *******************************************************************************/
 145:Generated_Source\PSoC5/HELFT_B.c **** uint8 HELFT_B_ReadDataReg(void)
ARM GAS  C:\Users\atill\AppData\Local\Temp\ccABANbQ.s 			page 6


 146:Generated_Source\PSoC5/HELFT_B.c **** {
 141              		.loc 1 146 0
 142              		.cfi_startproc
 143              		@ args = 0, pretend = 0, frame = 0
 144              		@ frame_needed = 0, uses_anonymous_args = 0
 145              		@ link register save eliminated.
 147:Generated_Source\PSoC5/HELFT_B.c ****     return (HELFT_B_DR & HELFT_B_MASK) >> HELFT_B_SHIFT;
 146              		.loc 1 147 0
 147 0000 014B     		ldr	r3, .L11
 148 0002 1878     		ldrb	r0, [r3]	@ zero_extendqisi2
 148:Generated_Source\PSoC5/HELFT_B.c **** }
 149              		.loc 1 148 0
 150 0004 C008     		lsrs	r0, r0, #3
 151 0006 7047     		bx	lr
 152              	.L12:
 153              		.align	2
 154              	.L11:
 155 0008 20510040 		.word	1073762592
 156              		.cfi_endproc
 157              	.LFE3:
 158              		.size	HELFT_B_ReadDataReg, .-HELFT_B_ReadDataReg
 159              		.text
 160              	.Letext0:
 161              		.file 2 "Generated_Source\\PSoC5\\cytypes.h"