ARM GAS  C:\Users\atill\AppData\Local\Temp\ccZLT89d.s 			page 1


   1              		.syntax unified
   2              		.cpu cortex-m3
   3              		.fpu softvfp
   4              		.eabi_attribute 20, 1
   5              		.eabi_attribute 21, 1
   6              		.eabi_attribute 23, 3
   7              		.eabi_attribute 24, 1
   8              		.eabi_attribute 25, 1
   9              		.eabi_attribute 26, 1
  10              		.eabi_attribute 30, 1
  11              		.eabi_attribute 34, 1
  12              		.eabi_attribute 18, 4
  13              		.thumb
  14              		.syntax unified
  15              		.file	"main.c"
  16              		.text
  17              	.Ltext0:
  18              		.cfi_sections	.debug_frame
  19              		.section	.text.convertInt,"ax",%progbits
  20              		.align	2
  21              		.global	convertInt
  22              		.thumb
  23              		.thumb_func
  24              		.type	convertInt, %function
  25              	convertInt:
  26              	.LFB64:
  27              		.file 1 "main.c"
   1:main.c        **** /* ========================================
   2:main.c        ****  *
   3:main.c        ****  * Copyright YOUR COMPANY, THE YEAR
   4:main.c        ****  * All Rights Reserved
   5:main.c        ****  * UNPUBLISHED, LICENSED SOFTWARE.
   6:main.c        ****  *
   7:main.c        ****  * CONFIDENTIAL AND PROPRIETARY INFORMATION
   8:main.c        ****  * WHICH IS THE PROPERTY OF your company.
   9:main.c        ****  *
  10:main.c        ****  * ========================================
  11:main.c        **** */
  12:main.c        **** #include "project.h"
  13:main.c        **** #include <string.h>
  14:main.c        **** #include <stdlib.h>
  15:main.c        **** #include <stdio.h>
  16:main.c        **** 
  17:main.c        **** char buffer[12] ;
  18:main.c        **** char *convertInt(int in) {
  28              		.loc 1 18 0
  29              		.cfi_startproc
  30              		@ args = 0, pretend = 0, frame = 0
  31              		@ frame_needed = 0, uses_anonymous_args = 0
  32              	.LVL0:
  33 0000 10B5     		push	{r4, lr}
  34              		.cfi_def_cfa_offset 8
  35              		.cfi_offset 4, -8
  36              		.cfi_offset 14, -4
  19:main.c        ****     sprintf(buffer,"%d",in) ;
  37              		.loc 1 19 0
  38 0002 044C     		ldr	r4, .L3
ARM GAS  C:\Users\atill\AppData\Local\Temp\ccZLT89d.s 			page 2


  39 0004 0246     		mov	r2, r0
  40 0006 0449     		ldr	r1, .L3+4
  41 0008 2046     		mov	r0, r4
  42              	.LVL1:
  43 000a FFF7FEFF 		bl	sprintf
  44              	.LVL2:
  20:main.c        ****     return buffer;
  21:main.c        **** }
  45              		.loc 1 21 0
  46 000e 2046     		mov	r0, r4
  47 0010 10BD     		pop	{r4, pc}
  48              	.L4:
  49 0012 00BF     		.align	2
  50              	.L3:
  51 0014 00000000 		.word	buffer
  52 0018 00000000 		.word	.LC0
  53              		.cfi_endproc
  54              	.LFE64:
  55              		.size	convertInt, .-convertInt
  56              		.section	.text.main,"ax",%progbits
  57              		.align	2
  58              		.global	main
  59              		.thumb
  60              		.thumb_func
  61              		.type	main, %function
  62              	main:
  63              	.LFB65:
  22:main.c        **** 
  23:main.c        **** int main(void)
  24:main.c        **** {
  64              		.loc 1 24 0
  65              		.cfi_startproc
  66              		@ args = 0, pretend = 0, frame = 0
  67              		@ frame_needed = 0, uses_anonymous_args = 0
  68 0000 38B5     		push	{r3, r4, r5, lr}
  69              		.cfi_def_cfa_offset 16
  70              		.cfi_offset 3, -16
  71              		.cfi_offset 4, -12
  72              		.cfi_offset 5, -8
  73              		.cfi_offset 14, -4
  25:main.c        ****     CyGlobalIntEnable; /* Enable global interrupts. */
  74              		.loc 1 25 0
  75              		.syntax unified
  76              	@ 25 "main.c" 1
  77 0002 62B6     		CPSIE   i
  78              	@ 0 "" 2
  26:main.c        ****     UART_1_Start() ;
  79              		.loc 1 26 0
  80              		.thumb
  81              		.syntax unified
  82 0004 FFF7FEFF 		bl	UART_1_Start
  83              	.LVL3:
  27:main.c        ****     ADC_SAR_1_Start() ;
  84              		.loc 1 27 0
  85 0008 FFF7FEFF 		bl	ADC_SAR_1_Start
  86              	.LVL4:
  28:main.c        ****     ADC_SAR_1_StartConvert() ;
ARM GAS  C:\Users\atill\AppData\Local\Temp\ccZLT89d.s 			page 3


  87              		.loc 1 28 0
  88 000c FFF7FEFF 		bl	ADC_SAR_1_StartConvert
  89              	.LVL5:
  29:main.c        ****     PWM_1_Start() ;
  90              		.loc 1 29 0
  91 0010 FFF7FEFF 		bl	PWM_1_Start
  92              	.LVL6:
  93              	.L6:
  30:main.c        ****     /* Place your initialization/startup code here (e.g. MyInst_Start()) */
  31:main.c        ****     
  32:main.c        ****     
  33:main.c        ****     int analogValue ;
  34:main.c        ****     int dimmerSetting ;
  35:main.c        ****     for(;;)
  36:main.c        ****     {
  37:main.c        ****         /* Place your application code here. */
  38:main.c        ****         ADC_SAR_1_IsEndConversion(ADC_SAR_1_WAIT_FOR_RESULT) ;
  94              		.loc 1 38 0 discriminator 1
  95 0014 0020     		movs	r0, #0
  96 0016 FFF7FEFF 		bl	ADC_SAR_1_IsEndConversion
  97              	.LVL7:
  39:main.c        ****         analogValue = ADC_SAR_1_GetResult16() ;
  98              		.loc 1 39 0 discriminator 1
  99 001a FFF7FEFF 		bl	ADC_SAR_1_GetResult16
 100              	.LVL8:
 101 001e 0446     		mov	r4, r0
 102              	.LVL9:
  40:main.c        ****         UART_1_PutString(convertInt(analogValue)) ;
 103              		.loc 1 40 0 discriminator 1
 104 0020 FFF7FEFF 		bl	convertInt
 105              	.LVL10:
 106 0024 FFF7FEFF 		bl	UART_1_PutString
 107              	.LVL11:
  41:main.c        ****         UART_1_PutString("\n\r") ;
 108              		.loc 1 41 0 discriminator 1
 109 0028 0948     		ldr	r0, .L8
 110 002a FFF7FEFF 		bl	UART_1_PutString
 111              	.LVL12:
  42:main.c        ****         
  43:main.c        ****         dimmerSetting = analogValue >> 2 ;
 112              		.loc 1 43 0 discriminator 1
 113 002e A510     		asrs	r5, r4, #2
 114              	.LVL13:
  44:main.c        ****         Control_Reg_1_Write(analogValue) ;
 115              		.loc 1 44 0 discriminator 1
 116 0030 E0B2     		uxtb	r0, r4
 117 0032 FFF7FEFF 		bl	Control_Reg_1_Write
 118              	.LVL14:
  45:main.c        ****         Control_Reg_2_Write(analogValue>>5) ;
 119              		.loc 1 45 0 discriminator 1
 120 0036 C4F34710 		ubfx	r0, r4, #5, #8
 121 003a FFF7FEFF 		bl	Control_Reg_2_Write
 122              	.LVL15:
  46:main.c        ****         
  47:main.c        ****         PWM_1_WriteCompare(dimmerSetting) ;
 123              		.loc 1 47 0 discriminator 1
 124 003e E8B2     		uxtb	r0, r5
ARM GAS  C:\Users\atill\AppData\Local\Temp\ccZLT89d.s 			page 4


 125 0040 FFF7FEFF 		bl	PWM_1_WriteCompare
 126              	.LVL16:
  48:main.c        ****         
  49:main.c        ****         CyDelay(500) ;
 127              		.loc 1 49 0 discriminator 1
 128 0044 4FF4FA70 		mov	r0, #500
 129 0048 FFF7FEFF 		bl	CyDelay
 130              	.LVL17:
 131 004c E2E7     		b	.L6
 132              	.L9:
 133 004e 00BF     		.align	2
 134              	.L8:
 135 0050 04000000 		.word	.LC1
 136              		.cfi_endproc
 137              	.LFE65:
 138              		.size	main, .-main
 139              		.comm	buffer,12,4
 140              		.section	.rodata.str1.4,"aMS",%progbits,1
 141              		.align	2
 142              	.LC0:
 143 0000 256400   		.ascii	"%d\000"
 144 0003 00       		.space	1
 145              	.LC1:
 146 0004 0A0D00   		.ascii	"\012\015\000"
 147              		.text
 148              	.Letext0:
 149              		.file 2 "c:\\program files (x86)\\cypress\\psoc creator\\4.4\\psoc creator\\import\\gnu\\arm\\5.4.
 150              		.file 3 "c:\\program files (x86)\\cypress\\psoc creator\\4.4\\psoc creator\\import\\gnu\\arm\\5.4.
 151              		.file 4 "Generated_Source\\PSoC5/core_cm3.h"
 152              		.file 5 "c:\\program files (x86)\\cypress\\psoc creator\\4.4\\psoc creator\\import\\gnu\\arm\\5.4.
 153              		.file 6 "Generated_Source\\PSoC5/UART_1.h"
 154              		.file 7 "Generated_Source\\PSoC5/ADC_SAR_1.h"
 155              		.file 8 "Generated_Source\\PSoC5/PWM_1.h"
 156              		.file 9 "Generated_Source\\PSoC5/Control_Reg_1.h"
 157              		.file 10 "Generated_Source\\PSoC5/Control_Reg_2.h"
 158              		.file 11 "Generated_Source\\PSoC5/CyLib.h"